target datalayout = "e-m:e-p270:32:32-p271:32:32-p272:64:64-i64:64-i128:128-f80:128-n8:16:32:64-S128"
target triple = "x86_64-pc-linux-gnu"

%struct.AVCodecContext = type { ptr, i32, i32, ptr, i32, i32, ptr, ptr, ptr, i64, i32, i32, ptr, i32, %struct.AVRational, %struct.AVRational, %struct.AVRational, i32, i32, i32, i32, i32, %struct.AVRational, i32, i32, i32, i32, i32, i32, i32, i32, i32, i32, i32, ptr, ptr, i32, float, float, float, float, float, float, float, float, float, i32, i32, i32, i32, i32, i32, i32, i32, i32, i32, i32, i32, ptr, ptr, ptr, i32, i32, i32, i32, i32, i32, i32, i32, i32, i32, %struct.AVChannelLayout, i32, i32, i32, i32, i32, i32, i32, i32, ptr, i32, i32, i32, float, float, i32, i32, i32, i32, i32, ptr, i64, i64, float, float, i32, i32, ptr, ptr, i32, i32, i32, i32, i32, ptr, ptr, ptr, ptr, i32, i32, [8 x i64], i32, i32, i32, i32, i32, i32, i32, ptr, ptr, i32, i32, i32, i32, i32, i32, i32, i32, i32, i32, ptr, ptr, i32, i32, ptr, ptr, ptr, ptr, i32, i32, i64, i32, i32, i64, ptr, i64, ptr, i32, ptr, i32 }
%struct.AVRational = type { i32, i32 }
%struct.AVChannelLayout = type { i32, i32, %union.anon.1, ptr }
%union.anon.1 = type { i64 }
%struct.PNGEncContext = type { ptr, %struct.LLVidEncDSPContext, ptr, ptr, ptr, i32, %struct.FFZStream, [4096 x i8], i32, i32, i32, i32, i32, i32, i32, i32, i32, ptr, i32, ptr, ptr, %struct.APNGFctlChunk, ptr, i64 }
%struct.LLVidEncDSPContext = type { ptr, ptr, ptr }
%struct.FFZStream = type { %struct.z_stream_s, i32 }
%struct.z_stream_s = type { ptr, i32, i64, ptr, i32, i64, ptr, ptr, ptr, ptr, ptr, i32, i64, i64 }
%struct.APNGFctlChunk = type { i32, i32, i32, i32, i32, i16, i16, i8, i8 }
%struct.AVPacket = type { ptr, i64, i64, ptr, i32, i32, i32, ptr, i32, i64, i64, ptr, ptr, %struct.AVRational }
%struct.AVFrameSideData = type { i32, ptr, i64, ptr, ptr }

; Function Attrs: alwaysinline nounwind uwtable
define internal void @bytestream_put_be32(ptr noundef %0, i32 noundef %1) #9 {
  %3 = alloca ptr, align 8
  %4 = alloca i32, align 4
  store ptr %0, ptr %3, align 8, !tbaa !141
  store i32 %1, ptr %4, align 4, !tbaa !50
  %5 = load i32, ptr %4, align 4, !tbaa !50
  %6 = call i32 @av_bswap32(i32 noundef %5) #14
  %7 = load ptr, ptr %3, align 8, !tbaa !141
  %8 = load ptr, ptr %7, align 8, !tbaa !67
  store i32 %6, ptr %8, align 1, !tbaa !64
  %9 = load ptr, ptr %3, align 8, !tbaa !141
  %10 = load ptr, ptr %9, align 8, !tbaa !67
  %11 = getelementptr inbounds i8, ptr %10, i64 4
  store ptr %11, ptr %9, align 8, !tbaa !67
  ret void
}

; Function Attrs: alwaysinline nounwind willreturn memory(none) uwtable
define internal i32 @av_bswap32(i32 noundef %0) #4 {
  %2 = alloca i32, align 4
  store i32 %0, ptr %2, align 4, !tbaa !50
  %3 = load i32, ptr %2, align 4, !tbaa !50
  %4 = shl i32 %3, 8
  %5 = and i32 %4, 65280
  %6 = load i32, ptr %2, align 4, !tbaa !50
  %7 = lshr i32 %6, 8
  %8 = and i32 %7, 255
  %9 = or i32 %5, %8
  %10 = shl i32 %9, 16
  %11 = load i32, ptr %2, align 4, !tbaa !50
  %12 = lshr i32 %11, 16
  %13 = shl i32 %12, 8
  %14 = and i32 %13, 65280
  %15 = load i32, ptr %2, align 4, !tbaa !50
  %16 = lshr i32 %15, 16
  %17 = lshr i32 %16, 8
  %18 = and i32 %17, 255
  %19 = or i32 %14, %18
  %20 = or i32 %10, %19
  ret i32 %20
}

; Function Attrs: nounwind uwtable
define internal void @png_write_chunk(ptr noundef %0, i32 noundef %1, ptr noundef %2, i32 noundef %3) #1 {
  %5 = alloca ptr, align 8
  %6 = alloca i32, align 4
  %7 = alloca ptr, align 8
  %8 = alloca i32, align 4
  %9 = alloca ptr, align 8
  %10 = alloca i32, align 4
  %11 = alloca [4 x i8], align 1
  store ptr %0, ptr %5, align 8, !tbaa !141
  store i32 %1, ptr %6, align 4, !tbaa !50
  store ptr %2, ptr %7, align 8, !tbaa !67
  store i32 %3, ptr %8, align 4, !tbaa !50
  call void @llvm.lifetime.start.p0(i64 8, ptr %9) #13
  %12 = call ptr @av_crc_get_table(i32 noundef 4)
  store ptr %12, ptr %9, align 8, !tbaa !54
  call void @llvm.lifetime.start.p0(i64 4, ptr %10) #13
  store i32 -1, ptr %10, align 4, !tbaa !50
  call void @llvm.lifetime.start.p0(i64 4, ptr %11) #13
  %13 = load ptr, ptr %5, align 8, !tbaa !141
  %14 = load i32, ptr %8, align 4, !tbaa !50
  call void @bytestream_put_be32(ptr noundef %13, i32 noundef %14)
  %15 = load i32, ptr %6, align 4, !tbaa !50
  %16 = getelementptr inbounds [4 x i8], ptr %11, i64 0, i64 0
  store i32 %15, ptr %16, align 1, !tbaa !64
  %17 = load ptr, ptr %9, align 8, !tbaa !54
  %18 = load i32, ptr %10, align 4, !tbaa !50
  %19 = getelementptr inbounds [4 x i8], ptr %11, i64 0, i64 0
  %20 = call i32 @av_crc(ptr noundef %17, i32 noundef %18, ptr noundef %19, i64 noundef 4) #15
  store i32 %20, ptr %10, align 4, !tbaa !50
  %21 = load ptr, ptr %5, align 8, !tbaa !141
  %22 = load i32, ptr %6, align 4, !tbaa !50
  %23 = call i32 @av_bswap32(i32 noundef %22) #14
  call void @bytestream_put_be32(ptr noundef %21, i32 noundef %23)
  %24 = load i32, ptr %8, align 4, !tbaa !50
  %25 = icmp sgt i32 %24, 0
  br i1 %25, label %26, label %49

26:                                               ; preds = %4
  %27 = load ptr, ptr %9, align 8, !tbaa !54
  %28 = load i32, ptr %10, align 4, !tbaa !50
  %29 = load ptr, ptr %7, align 8, !tbaa !67
  %30 = load i32, ptr %8, align 4, !tbaa !50
  %31 = sext i32 %30 to i64
  %32 = call i32 @av_crc(ptr noundef %27, i32 noundef %28, ptr noundef %29, i64 noundef %31) #15
  store i32 %32, ptr %10, align 4, !tbaa !50
  %33 = load ptr, ptr %5, align 8, !tbaa !141
  %34 = load ptr, ptr %33, align 8, !tbaa !67
  %35 = load ptr, ptr %7, align 8, !tbaa !67
  %36 = icmp ne ptr %34, %35
  br i1 %36, label %37, label %43

37:                                               ; preds = %26
  %38 = load ptr, ptr %5, align 8, !tbaa !141
  %39 = load ptr, ptr %38, align 8, !tbaa !67
  %40 = load ptr, ptr %7, align 8, !tbaa !67
  %41 = load i32, ptr %8, align 4, !tbaa !50
  %42 = sext i32 %41 to i64
  call void @llvm.memcpy.p0.p0.i64(ptr align 1 %39, ptr align 1 %40, i64 %42, i1 false)
  br label %43

43:                                               ; preds = %37, %26
  %44 = load i32, ptr %8, align 4, !tbaa !50
  %45 = load ptr, ptr %5, align 8, !tbaa !141
  %46 = load ptr, ptr %45, align 8, !tbaa !67
  %47 = sext i32 %44 to i64
  %48 = getelementptr inbounds i8, ptr %46, i64 %47
  store ptr %48, ptr %45, align 8, !tbaa !67
  br label %49

49:                                               ; preds = %43, %4
  %50 = load ptr, ptr %5, align 8, !tbaa !141
  %51 = load i32, ptr %10, align 4, !tbaa !50
  %52 = xor i32 %51, -1
  call void @bytestream_put_be32(ptr noundef %50, i32 noundef %52)
  call void @llvm.lifetime.end.p0(i64 4, ptr %11) #13
  call void @llvm.lifetime.end.p0(i64 4, ptr %10) #13
  call void @llvm.lifetime.end.p0(i64 8, ptr %9) #13
  ret void
}

; Function Attrs: inlinehint nounwind willreturn memory(none) uwtable
define internal i64 @av_bswap64(i64 noundef %0) #5 {
  %2 = alloca i64, align 8
  store i64 %0, ptr %2, align 8, !tbaa !57
  %3 = load i64, ptr %2, align 8, !tbaa !57
  %4 = trunc i64 %3 to i32
  %5 = call i32 @av_bswap32(i32 noundef %4) #14
  %6 = zext i32 %5 to i64
  %7 = shl i64 %6, 32
  %8 = load i64, ptr %2, align 8, !tbaa !57
  %9 = lshr i64 %8, 32
  %10 = trunc i64 %9 to i32
  %11 = call i32 @av_bswap32(i32 noundef %10) #14
  %12 = zext i32 %11 to i64
  %13 = or i64 %7, %12
  ret i64 %13
}

; Function Attrs: nounwind uwtable
define internal i32 @add_icc_profile_size(ptr noundef %0, ptr noundef %1, ptr noundef %2) #1 {
  %4 = alloca i32, align 4
  %5 = alloca ptr, align 8
  %6 = alloca ptr, align 8
  %7 = alloca ptr, align 8
  %8 = alloca ptr, align 8
  %9 = alloca ptr, align 8
  %10 = alloca i32, align 4
  %11 = alloca i64, align 8
  %12 = alloca i64, align 8
  %13 = alloca i32, align 4
  store ptr %0, ptr %5, align 8, !tbaa !4
  store ptr %1, ptr %6, align 8, !tbaa !53
  store ptr %2, ptr %7, align 8, !tbaa !104
  call void @llvm.lifetime.start.p0(i64 8, ptr %8) #13
  %14 = load ptr, ptr %5, align 8, !tbaa !4
  %15 = getelementptr inbounds nuw %struct.AVCodecContext, ptr %14, i32 0, i32 6
  %16 = load ptr, ptr %15, align 8, !tbaa !9
  store ptr %16, ptr %8, align 8, !tbaa !29
  call void @llvm.lifetime.start.p0(i64 8, ptr %9) #13
  call void @llvm.lifetime.start.p0(i64 4, ptr %10) #13
  store i32 128, ptr %10, align 4, !tbaa !50
  call void @llvm.lifetime.start.p0(i64 8, ptr %11) #13
  call void @llvm.lifetime.start.p0(i64 8, ptr %12) #13
  %17 = load ptr, ptr %6, align 8, !tbaa !53
  %18 = icmp ne ptr %17, null
  br i1 %18, label %20, label %19

19:                                               ; preds = %3
  store i32 0, ptr %4, align 4
  store i32 1, ptr %13, align 4
  br label %65

20:                                               ; preds = %3
  %21 = load ptr, ptr %6, align 8, !tbaa !53
  %22 = call ptr @av_frame_get_side_data(ptr noundef %21, i32 noundef 15)
  store ptr %22, ptr %9, align 8, !tbaa !106
  %23 = load ptr, ptr %9, align 8, !tbaa !106
  %24 = icmp ne ptr %23, null
  br i1 %24, label %25, label %30

25:                                               ; preds = %20
  %26 = load ptr, ptr %9, align 8, !tbaa !106
  %27 = getelementptr inbounds nuw %struct.AVFrameSideData, ptr %26, i32 0, i32 2
  %28 = load i64, ptr %27, align 8, !tbaa !108
  %29 = icmp ne i64 %28, 0
  br i1 %29, label %31, label %30

30:                                               ; preds = %25, %20
  store i32 0, ptr %4, align 4
  store i32 1, ptr %13, align 4
  br label %65

31:                                               ; preds = %25
  %32 = load ptr, ptr %9, align 8, !tbaa !106
  %33 = getelementptr inbounds nuw %struct.AVFrameSideData, ptr %32, i32 0, i32 2
  %34 = load i64, ptr %33, align 8, !tbaa !108
  %35 = load ptr, ptr %9, align 8, !tbaa !106
  %36 = getelementptr inbounds nuw %struct.AVFrameSideData, ptr %35, i32 0, i32 2
  %37 = load i64, ptr %36, align 8, !tbaa !108
  %38 = icmp ne i64 %34, %37
  br i1 %38, label %39, label %40

39:                                               ; preds = %31
  store i32 -1094995529, ptr %4, align 4
  store i32 1, ptr %13, align 4
  br label %65

40:                                               ; preds = %31
  %41 = load ptr, ptr %8, align 8, !tbaa !29
  %42 = getelementptr inbounds nuw %struct.PNGEncContext, ptr %41, i32 0, i32 6
  %43 = getelementptr inbounds nuw %struct.FFZStream, ptr %42, i32 0, i32 0
  %44 = load ptr, ptr %9, align 8, !tbaa !106
  %45 = getelementptr inbounds nuw %struct.AVFrameSideData, ptr %44, i32 0, i32 2
  %46 = load i64, ptr %45, align 8, !tbaa !108
  %47 = call i64 @deflateBound(ptr noundef %43, i64 noundef %46)
  store i64 %47, ptr %12, align 8, !tbaa !57
  %48 = load i64, ptr %12, align 8, !tbaa !57
  %49 = icmp ugt i64 %48, 2147483519
  br i1 %49, label %50, label %51

50:                                               ; preds = %40
  store i32 -1094995529, ptr %4, align 4
  store i32 1, ptr %13, align 4
  br label %65

51:                                               ; preds = %40
  %52 = load ptr, ptr %7, align 8, !tbaa !104
  %53 = load i64, ptr %52, align 8, !tbaa !57
  %54 = load i64, ptr %12, align 8, !tbaa !57
  %55 = add i64 %53, %54
  %56 = add i64 %55, 128
  store i64 %56, ptr %11, align 8, !tbaa !57
  %57 = load i64, ptr %11, align 8, !tbaa !57
  %58 = load ptr, ptr %7, align 8, !tbaa !104
  %59 = load i64, ptr %58, align 8, !tbaa !57
  %60 = icmp ult i64 %57, %59
  br i1 %60, label %61, label %62

61:                                               ; preds = %51
  store i32 -1094995529, ptr %4, align 4
  store i32 1, ptr %13, align 4
  br label %65

62:                                               ; preds = %51
  %63 = load i64, ptr %11, align 8, !tbaa !57
  %64 = load ptr, ptr %7, align 8, !tbaa !104
  store i64 %63, ptr %64, align 8, !tbaa !57
  store i32 0, ptr %4, align 4
  store i32 1, ptr %13, align 4
  br label %65

65:                                               ; preds = %62, %61, %50, %39, %30, %19
  call void @llvm.lifetime.end.p0(i64 8, ptr %12) #13
  call void @llvm.lifetime.end.p0(i64 8, ptr %11) #13
  call void @llvm.lifetime.end.p0(i64 4, ptr %10) #13
  call void @llvm.lifetime.end.p0(i64 8, ptr %9) #13
  call void @llvm.lifetime.end.p0(i64 8, ptr %8) #13
  %66 = load i32, ptr %4, align 4
  ret i32 %66
}

; Function Attrs: nounwind uwtable
define internal i32 @encode_png(ptr noundef %0, ptr noundef %1, ptr noundef %2, ptr noundef %3) #1 {
  %5 = alloca i32, align 4
  %6 = alloca ptr, align 8
  %7 = alloca ptr, align 8
  %8 = alloca ptr, align 8
  %9 = alloca ptr, align 8
  %10 = alloca ptr, align 8
  %11 = alloca i32, align 4
  %12 = alloca i32, align 4
  %13 = alloca i64, align 8
  %14 = alloca i32, align 4
  store ptr %0, ptr %6, align 8, !tbaa !4
  store ptr %1, ptr %7, align 8, !tbaa !51
  store ptr %2, ptr %8, align 8, !tbaa !53
  store ptr %3, ptr %9, align 8, !tbaa !54
  call void @llvm.lifetime.start.p0(i64 8, ptr %10) #13
  %15 = load ptr, ptr %6, align 8, !tbaa !4
  %16 = getelementptr inbounds nuw %struct.AVCodecContext, ptr %15, i32 0, i32 6
  %17 = load ptr, ptr %16, align 8, !tbaa !9
  store ptr %17, ptr %10, align 8, !tbaa !29
  call void @llvm.lifetime.start.p0(i64 4, ptr %11) #13
  call void @llvm.lifetime.start.p0(i64 4, ptr %12) #13
  call void @llvm.lifetime.start.p0(i64 8, ptr %13) #13
  %18 = load ptr, ptr %10, align 8, !tbaa !29
  %19 = getelementptr inbounds nuw %struct.PNGEncContext, ptr %18, i32 0, i32 6
  %20 = getelementptr inbounds nuw %struct.FFZStream, ptr %19, i32 0, i32 0
  %21 = load ptr, ptr %6, align 8, !tbaa !4
  %22 = getelementptr inbounds nuw %struct.AVCodecContext, ptr %21, i32 0, i32 18
  %23 = load i32, ptr %22, align 8, !tbaa !55
  %24 = load ptr, ptr %10, align 8, !tbaa !29
  %25 = getelementptr inbounds nuw %struct.PNGEncContext, ptr %24, i32 0, i32 13
  %26 = load i32, ptr %25, align 4, !tbaa !48
  %27 = mul nsw i32 %23, %26
  %28 = add nsw i32 %27, 7
  %29 = ashr i32 %28, 3
  %30 = sext i32 %29 to i64
  %31 = call i64 @deflateBound(ptr noundef %20, i64 noundef %30)
  %32 = trunc i64 %31 to i32
  store i32 %32, ptr %12, align 4, !tbaa !50
  %33 = load ptr, ptr %6, align 8, !tbaa !4
  %34 = getelementptr inbounds nuw %struct.AVCodecContext, ptr %33, i32 0, i32 19
  %35 = load i32, ptr %34, align 4, !tbaa !56
  %36 = sext i32 %35 to i64
  %37 = load i32, ptr %12, align 4, !tbaa !50
  %38 = sext i32 %37 to i64
  %39 = load i32, ptr %12, align 4, !tbaa !50
  %40 = sext i32 %39 to i64
  %41 = add nsw i64 %40, 4096
  %42 = sub nsw i64 %41, 1
  %43 = sdiv i64 %42, 4096
  %44 = mul nsw i64 12, %43
  %45 = add nsw i64 %38, %44
  %46 = mul nsw i64 %36, %45
  %47 = add nsw i64 16384, %46
  store i64 %47, ptr %13, align 8, !tbaa !57
  %48 = load ptr, ptr %6, align 8, !tbaa !4
  %49 = load ptr, ptr %8, align 8, !tbaa !53
  %50 = call i32 @add_icc_profile_size(ptr noundef %48, ptr noundef %49, ptr noundef %13)
  store i32 %50, ptr %11, align 4, !tbaa !50
  %51 = icmp ne i32 %50, 0
  br i1 %51, label %52, label %54

52:                                               ; preds = %4
  %53 = load i32, ptr %11, align 4, !tbaa !50
  store i32 %53, ptr %5, align 4
  store i32 1, ptr %14, align 4
  br label %124

54:                                               ; preds = %4
  %55 = load ptr, ptr %6, align 8, !tbaa !4
  %56 = load ptr, ptr %7, align 8, !tbaa !51
  %57 = load i64, ptr %13, align 8, !tbaa !57
  %58 = call i32 @ff_alloc_packet(ptr noundef %55, ptr noundef %56, i64 noundef %57)
  store i32 %58, ptr %11, align 4, !tbaa !50
  %59 = load i32, ptr %11, align 4, !tbaa !50
  %60 = icmp slt i32 %59, 0
  br i1 %60, label %61, label %63

61:                                               ; preds = %54
  %62 = load i32, ptr %11, align 4, !tbaa !50
  store i32 %62, ptr %5, align 4
  store i32 1, ptr %14, align 4
  br label %124

63:                                               ; preds = %54
  %64 = load ptr, ptr %7, align 8, !tbaa !51
  %65 = getelementptr inbounds nuw %struct.AVPacket, ptr %64, i32 0, i32 3
  %66 = load ptr, ptr %65, align 8, !tbaa !58
  %67 = load ptr, ptr %10, align 8, !tbaa !29
  %68 = getelementptr inbounds nuw %struct.PNGEncContext, ptr %67, i32 0, i32 2
  store ptr %66, ptr %68, align 8, !tbaa !60
  %69 = load ptr, ptr %10, align 8, !tbaa !29
  %70 = getelementptr inbounds nuw %struct.PNGEncContext, ptr %69, i32 0, i32 3
  store ptr %66, ptr %70, align 8, !tbaa !61
  %71 = load ptr, ptr %7, align 8, !tbaa !51
  %72 = getelementptr inbounds nuw %struct.AVPacket, ptr %71, i32 0, i32 3
  %73 = load ptr, ptr %72, align 8, !tbaa !58
  %74 = load ptr, ptr %7, align 8, !tbaa !51
  %75 = getelementptr inbounds nuw %struct.AVPacket, ptr %74, i32 0, i32 4
  %76 = load i32, ptr %75, align 8, !tbaa !62
  %77 = sext i32 %76 to i64
  %78 = getelementptr inbounds i8, ptr %73, i64 %77
  %79 = load ptr, ptr %10, align 8, !tbaa !29
  %80 = getelementptr inbounds nuw %struct.PNGEncContext, ptr %79, i32 0, i32 4
  store ptr %78, ptr %80, align 8, !tbaa !63
  %81 = call i64 @av_bswap64(i64 noundef -8552249625308161526) #14
  %82 = load ptr, ptr %10, align 8, !tbaa !29
  %83 = getelementptr inbounds nuw %struct.PNGEncContext, ptr %82, i32 0, i32 2
  %84 = load ptr, ptr %83, align 8, !tbaa !60
  store i64 %81, ptr %84, align 1, !tbaa !64
  %85 = load ptr, ptr %10, align 8, !tbaa !29
  %86 = getelementptr inbounds nuw %struct.PNGEncContext, ptr %85, i32 0, i32 2
  %87 = load ptr, ptr %86, align 8, !tbaa !60
  %88 = getelementptr inbounds i8, ptr %87, i64 8
  store ptr %88, ptr %86, align 8, !tbaa !60
  %89 = load ptr, ptr %6, align 8, !tbaa !4
  %90 = load ptr, ptr %8, align 8, !tbaa !53
  %91 = call i32 @encode_headers(ptr noundef %89, ptr noundef %90)
  store i32 %91, ptr %11, align 4, !tbaa !50
  %92 = load i32, ptr %11, align 4, !tbaa !50
  %93 = icmp slt i32 %92, 0
  br i1 %93, label %94, label %96

94:                                               ; preds = %63
  %95 = load i32, ptr %11, align 4, !tbaa !50
  store i32 %95, ptr %5, align 4
  store i32 1, ptr %14, align 4
  br label %124

96:                                               ; preds = %63
  %97 = load ptr, ptr %6, align 8, !tbaa !4
  %98 = load ptr, ptr %8, align 8, !tbaa !53
  %99 = call i32 @encode_frame(ptr noundef %97, ptr noundef %98)
  store i32 %99, ptr %11, align 4, !tbaa !50
  %100 = load i32, ptr %11, align 4, !tbaa !50
  %101 = icmp slt i32 %100, 0
  br i1 %101, label %102, label %104

102:                                              ; preds = %96
  %103 = load i32, ptr %11, align 4, !tbaa !50
  store i32 %103, ptr %5, align 4
  store i32 1, ptr %14, align 4
  br label %124

104:                                              ; preds = %96
  %105 = load ptr, ptr %10, align 8, !tbaa !29
  %106 = getelementptr inbounds nuw %struct.PNGEncContext, ptr %105, i32 0, i32 2
  call void @png_write_chunk(ptr noundef %106, i32 noundef 1145980233, ptr noundef null, i32 noundef 0)
  %107 = load ptr, ptr %10, align 8, !tbaa !29
  %108 = getelementptr inbounds nuw %struct.PNGEncContext, ptr %107, i32 0, i32 2
  %109 = load ptr, ptr %108, align 8, !tbaa !60
  %110 = load ptr, ptr %10, align 8, !tbaa !29
  %111 = getelementptr inbounds nuw %struct.PNGEncContext, ptr %110, i32 0, i32 3
  %112 = load ptr, ptr %111, align 8, !tbaa !61
  %113 = ptrtoint ptr %109 to i64
  %114 = ptrtoint ptr %112 to i64
  %115 = sub i64 %113, %114
  %116 = trunc i64 %115 to i32
  %117 = load ptr, ptr %7, align 8, !tbaa !51
  %118 = getelementptr inbounds nuw %struct.AVPacket, ptr %117, i32 0, i32 4
  store i32 %116, ptr %118, align 8, !tbaa !62
  %119 = load ptr, ptr %7, align 8, !tbaa !51
  %120 = getelementptr inbounds nuw %struct.AVPacket, ptr %119, i32 0, i32 6
  %121 = load i32, ptr %120, align 8, !tbaa !65
  %122 = or i32 %121, 1
  store i32 %122, ptr %120, align 8, !tbaa !65
  %123 = load ptr, ptr %9, align 8, !tbaa !54
  store i32 1, ptr %123, align 4, !tbaa !50
  store i32 0, ptr %5, align 4
  store i32 1, ptr %14, align 4
  br label %124

124:                                              ; preds = %104, %102, %94, %61, %52
  call void @llvm.lifetime.end.p0(i64 8, ptr %13) #13
  call void @llvm.lifetime.end.p0(i64 4, ptr %12) #13
  call void @llvm.lifetime.end.p0(i64 4, ptr %11) #13
  call void @llvm.lifetime.end.p0(i64 8, ptr %10) #13
  %125 = load i32, ptr %5, align 4
  ret i32 %125
}