; Function Attrs: nounwind uwtable
define internal range(i32 -2147483648, 1) i32 @encode_png(ptr noundef %0, ptr noundef %1, ptr noundef %2, ptr noundef writeonly captures(none) %3) #1 {
  %5 = alloca [4 x i8], align 4
  %6 = getelementptr inbounds nuw i8, ptr %0, i64 32
  %7 = load ptr, ptr %6, align 8, !tbaa !4
  %8 = getelementptr inbounds nuw i8, ptr %7, i64 64
  %9 = getelementptr inbounds nuw i8, ptr %0, i64 112
  %10 = load i32, ptr %9, align 8, !tbaa !46
  %11 = getelementptr inbounds nuw i8, ptr %7, i64 4300
  %12 = load i32, ptr %11, align 4, !tbaa !44
  %13 = mul nsw i32 %12, %10
  %14 = add nsw i32 %13, 7
  %15 = ashr i32 %14, 3
  %16 = sext i32 %15 to i64
  %17 = tail call i64 @deflateBound(ptr noundef nonnull %8, i64 noundef %16) #11
  %18 = getelementptr inbounds nuw i8, ptr %0, i64 116
  %19 = load i32, ptr %18, align 4, !tbaa !47
  %20 = sext i32 %19 to i64
  %sext = shl i64 %17, 32
  %21 = ashr exact i64 %sext, 32
  %22 = add nsw i64 %21, 4095
  %23 = sdiv i64 %22, 4096
  %24 = mul nsw i64 %23, 12
  %25 = add nsw i64 %24, %21
  %26 = mul nsw i64 %25, %20
  %27 = add nsw i64 %26, 16384
  %.val = load ptr, ptr %6, align 8, !tbaa !4
  %.not.i = icmp eq ptr %2, null
  br i1 %.not.i, label %41, label %28

28:                                               ; preds = %4
  %29 = tail call ptr @av_frame_get_side_data(ptr noundef nonnull %2, i32 noundef 15) #11
  %.not21.i = icmp eq ptr %29, null
  br i1 %.not21.i, label %41, label %30

30:                                               ; preds = %28
  %31 = getelementptr inbounds nuw i8, ptr %29, i64 16
  %32 = load i64, ptr %31, align 8, !tbaa !48
  %.not22.i = icmp eq i64 %32, 0
  br i1 %.not22.i, label %41, label %33

33:                                               ; preds = %30
  %34 = getelementptr inbounds nuw i8, ptr %.val, i64 64
  %35 = tail call i64 @deflateBound(ptr noundef nonnull %34, i64 noundef %32) #11
  %36 = icmp ugt i64 %35, 2147483519
  br i1 %36, label %add_icc_profile_size.exit, label %37

37:                                               ; preds = %33
  %38 = add nsw i64 %26, 16512
  %39 = add nsw i64 %38, %35
  %40 = icmp ult i64 %39, %27
  br i1 %40, label %add_icc_profile_size.exit, label %41

41:                                               ; preds = %37, %4, %30, %28
  %.042.ph = phi i64 [ %27, %30 ], [ %27, %28 ], [ %27, %4 ], [ %39, %37 ]
  %42 = tail call i32 @ff_alloc_packet(ptr noundef nonnull %0, ptr noundef %1, i64 noundef %.042.ph) #11
  %43 = icmp slt i32 %42, 0
  br i1 %43, label %add_icc_profile_size.exit, label %44

44:                                               ; preds = %41
  %45 = getelementptr inbounds nuw i8, ptr %1, i64 24
  %46 = load ptr, ptr %45, align 8, !tbaa !51
  %47 = getelementptr inbounds nuw i8, ptr %7, i64 32
  store ptr %46, ptr %47, align 8, !tbaa !53
  %48 = getelementptr inbounds nuw i8, ptr %7, i64 40
  store ptr %46, ptr %48, align 8, !tbaa !54
  %49 = getelementptr inbounds nuw i8, ptr %1, i64 32
  %50 = load i32, ptr %49, align 8, !tbaa !55
  %51 = sext i32 %50 to i64
  %52 = getelementptr inbounds i8, ptr %46, i64 %51
  %53 = getelementptr inbounds nuw i8, ptr %7, i64 48
  store ptr %52, ptr %53, align 8, !tbaa !56
  store i64 727905341920923785, ptr %46, align 1, !tbaa !57
  %54 = load ptr, ptr %47, align 8, !tbaa !53
  %55 = getelementptr inbounds nuw i8, ptr %54, i64 8
  store ptr %55, ptr %47, align 8, !tbaa !53
  %56 = tail call fastcc i32 @encode_headers(ptr noundef nonnull %0, ptr noundef %2)
  %57 = icmp slt i32 %56, 0
  br i1 %57, label %add_icc_profile_size.exit, label %58

58:                                               ; preds = %44
  %59 = tail call fastcc i32 @encode_frame(ptr noundef nonnull %0, ptr noundef %2)
  %60 = icmp slt i32 %59, 0
  br i1 %60, label %add_icc_profile_size.exit, label %61

61:                                               ; preds = %58
  %62 = tail call ptr @av_crc_get_table(i32 noundef 4) #11
  call void @llvm.lifetime.start.p0(i64 4, ptr nonnull %5) #11
  %63 = load ptr, ptr %47, align 8, !tbaa !58
  store i32 0, ptr %63, align 1, !tbaa !57
  %64 = load ptr, ptr %47, align 8, !tbaa !58
  %65 = getelementptr inbounds nuw i8, ptr %64, i64 4
  store ptr %65, ptr %47, align 8, !tbaa !58
  store i32 1145980233, ptr %5, align 4, !tbaa !57
  %66 = call i32 @av_crc(ptr noundef %62, i32 noundef -1, ptr noundef nonnull %5, i64 noundef 4) #12
  store i32 1145980233, ptr %65, align 1, !tbaa !57
  %67 = load ptr, ptr %47, align 8, !tbaa !58
  %68 = getelementptr inbounds nuw i8, ptr %67, i64 4
  store ptr %68, ptr %47, align 8, !tbaa !58
  %69 = xor i32 %66, -1
  %70 = call i32 @llvm.bswap.i32(i32 %69)
  store i32 %70, ptr %68, align 1, !tbaa !57
  %71 = load ptr, ptr %47, align 8, !tbaa !58
  %72 = getelementptr inbounds nuw i8, ptr %71, i64 4
  store ptr %72, ptr %47, align 8, !tbaa !58
  call void @llvm.lifetime.end.p0(i64 4, ptr nonnull %5) #11
  %73 = load ptr, ptr %48, align 8, !tbaa !54
  %74 = ptrtoint ptr %72 to i64
  %75 = ptrtoint ptr %73 to i64
  %76 = sub i64 %74, %75
  %77 = trunc i64 %76 to i32
  store i32 %77, ptr %49, align 8, !tbaa !55
  %78 = getelementptr inbounds nuw i8, ptr %1, i64 40
  %79 = load i32, ptr %78, align 8, !tbaa !59
  %80 = or i32 %79, 1
  store i32 %80, ptr %78, align 8, !tbaa !59
  store i32 1, ptr %3, align 4, !tbaa !60
  br label %add_icc_profile_size.exit

add_icc_profile_size.exit:                        ; preds = %37, %33, %58, %44, %41, %61
  %.0 = phi i32 [ 0, %61 ], [ %42, %41 ], [ %56, %44 ], [ %59, %58 ], [ -1094995529, %33 ], [ -1094995529, %37 ]
  ret i32 %.0
}